; ModuleID = '21/1375.c'
source_filename = "21/1375.c"
target datalayout = "e-m:e-p270:32:32-p271:32:32-p272:64:64-i64:64-f80:128-n8:16:32:64-S128"
target triple = "x86_64-pc-linux-gnu"

@.str = private unnamed_addr constant [3 x i8] c"%d\00", align 1
@.str.1 = private unnamed_addr constant [6 x i8] c"%d,%d\00", align 1

; Function Attrs: noinline nounwind uwtable
define dso_local i32 @main(i32 %0, i8** %1) #0 {
  %3 = alloca i32, align 4
  %4 = alloca i32, align 4
  %5 = alloca i8**, align 8
  %6 = alloca i32, align 4
  %7 = alloca i32, align 4
  %8 = alloca i32, align 4
  %9 = alloca float, align 4
  %10 = alloca [300 x i32], align 16
  %11 = alloca i32*, align 8
  %12 = alloca i32, align 4
  %13 = alloca i32, align 4
  %14 = alloca i32, align 4
  %15 = alloca i32, align 4
  store i32 0, i32* %3, align 4
  store i32 %0, i32* %4, align 4
  store i8** %1, i8*** %5, align 8
  store i32 0, i32* %8, align 4
  %16 = call i32 (i8*, ...) @__isoc99_scanf(i8* getelementptr inbounds ([3 x i8], [3 x i8]* @.str, i64 0, i64 0), i32* %6)
  %17 = load i32, i32* %6, align 4
  %18 = sext i32 %17 to i64
  %19 = mul i64 4, %18
  %20 = call noalias i8* @malloc(i64 %19) #3
  %21 = bitcast i8* %20 to i32*
  store i32* %21, i32** %11, align 8
  store i32 0, i32* %7, align 4
  br label %22

22:                                               ; preds = %39, %2
  %23 = load i32, i32* %7, align 4
  %24 = load i32, i32* %6, align 4
  %25 = icmp slt i32 %23, %24
  br i1 %25, label %26, label %42

26:                                               ; preds = %22
  %27 = load i32*, i32** %11, align 8
  %28 = load i32, i32* %7, align 4
  %29 = sext i32 %28 to i64
  %30 = getelementptr inbounds i32, i32* %27, i64 %29
  %31 = call i32 (i8*, ...) @__isoc99_scanf(i8* getelementptr inbounds ([3 x i8], [3 x i8]* @.str, i64 0, i64 0), i32* %30)
  %32 = load i32*, i32** %11, align 8
  %33 = load i32, i32* %7, align 4
  %34 = sext i32 %33 to i64
  %35 = getelementptr inbounds i32, i32* %32, i64 %34
  %36 = load i32, i32* %35, align 4
  %37 = load i32, i32* %8, align 4
  %38 = add nsw i32 %37, %36
  store i32 %38, i32* %8, align 4
  br label %39

39:                                               ; preds = %26
  %40 = load i32, i32* %7, align 4
  %41 = add nsw i32 %40, 1
  store i32 %41, i32* %7, align 4
  br label %22

42:                                               ; preds = %22
  %43 = load i32, i32* %8, align 4
  %44 = sitofp i32 %43 to float
  %45 = load i32, i32* %6, align 4
  %46 = sitofp i32 %45 to float
  %47 = fdiv float %44, %46
  store float %47, float* %9, align 4
  %48 = load i32*, i32** %11, align 8
  %49 = getelementptr inbounds i32, i32* %48, i64 0
  %50 = load i32, i32* %49, align 4
  store i32 %50, i32* %12, align 4
  store i32 0, i32* %13, align 4
  br label %51

51:                                               ; preds = %70, %42
  %52 = load i32, i32* %13, align 4
  %53 = load i32, i32* %6, align 4
  %54 = icmp slt i32 %52, %53
  br i1 %54, label %55, label %73

55:                                               ; preds = %51
  %56 = load i32*, i32** %11, align 8
  %57 = load i32, i32* %13, align 4
  %58 = sext i32 %57 to i64
  %59 = getelementptr inbounds i32, i32* %56, i64 %58
  %60 = load i32, i32* %59, align 4
  %61 = load i32, i32* %12, align 4
  %62 = icmp sgt i32 %60, %61
  br i1 %62, label %63, label %69

63:                                               ; preds = %55
  %64 = load i32*, i32** %11, align 8
  %65 = load i32, i32* %13, align 4
  %66 = sext i32 %65 to i64
  %67 = getelementptr inbounds i32, i32* %64, i64 %66
  %68 = load i32, i32* %67, align 4
  store i32 %68, i32* %12, align 4
  br label %69

69:                                               ; preds = %63, %55
  br label %70

70:                                               ; preds = %69
  %71 = load i32, i32* %13, align 4
  %72 = add nsw i32 %71, 1
  store i32 %72, i32* %13, align 4
  br label %51

73:                                               ; preds = %51
  %74 = load i32*, i32** %11, align 8
  %75 = getelementptr inbounds i32, i32* %74, i64 0
  %76 = load i32, i32* %75, align 4
  store i32 %76, i32* %14, align 4
  store i32 0, i32* %15, align 4
  br label %77

77:                                               ; preds = %96, %73
  %78 = load i32, i32* %15, align 4
  %79 = load i32, i32* %6, align 4
  %80 = icmp slt i32 %78, %79
  br i1 %80, label %81, label %99

81:                                               ; preds = %77
  %82 = load i32*, i32** %11, align 8
  %83 = load i32, i32* %15, align 4
  %84 = sext i32 %83 to i64
  %85 = getelementptr inbounds i32, i32* %82, i64 %84
  %86 = load i32, i32* %85, align 4
  %87 = load i32, i32* %14, align 4
  %88 = icmp slt i32 %86, %87
  br i1 %88, label %89, label %95

89:                                               ; preds = %81
  %90 = load i32*, i32** %11, align 8
  %91 = load i32, i32* %15, align 4
  %92 = sext i32 %91 to i64
  %93 = getelementptr inbounds i32, i32* %90, i64 %92
  %94 = load i32, i32* %93, align 4
  store i32 %94, i32* %14, align 4
  br label %95

95:                                               ; preds = %89, %81
  br label %96

96:                                               ; preds = %95
  %97 = load i32, i32* %15, align 4
  %98 = add nsw i32 %97, 1
  store i32 %98, i32* %15, align 4
  br label %77

99:                                               ; preds = %77
  %100 = load i32, i32* %12, align 4
  %101 = sitofp i32 %100 to float
  %102 = load float, float* %9, align 4
  %103 = fsub float %101, %102
  %104 = load float, float* %9, align 4
  %105 = load i32, i32* %14, align 4
  %106 = sitofp i32 %105 to float
  %107 = fsub float %104, %106
  %108 = fcmp ogt float %103, %107
  br i1 %108, label %109, label %112

109:                                              ; preds = %99
  %110 = load i32, i32* %12, align 4
  %111 = call i32 (i8*, ...) @printf(i8* getelementptr inbounds ([3 x i8], [3 x i8]* @.str, i64 0, i64 0), i32 %110)
  br label %130

112:                                              ; preds = %99
  %113 = load i32, i32* %12, align 4
  %114 = sitofp i32 %113 to float
  %115 = load float, float* %9, align 4
  %116 = fsub float %114, %115
  %117 = load float, float* %9, align 4
  %118 = load i32, i32* %14, align 4
  %119 = sitofp i32 %118 to float
  %120 = fsub float %117, %119
  %121 = fcmp olt float %116, %120
  br i1 %121, label %122, label %125

122:                                              ; preds = %112
  %123 = load i32, i32* %14, align 4
  %124 = call i32 (i8*, ...) @printf(i8* getelementptr inbounds ([3 x i8], [3 x i8]* @.str, i64 0, i64 0), i32 %123)
  br label %129

125:                                              ; preds = %112
  %126 = load i32, i32* %14, align 4
  %127 = load i32, i32* %12, align 4
  %128 = call i32 (i8*, ...) @printf(i8* getelementptr inbounds ([6 x i8], [6 x i8]* @.str.1, i64 0, i64 0), i32 %126, i32 %127)
  br label %129

129:                                              ; preds = %125, %122
  br label %130

130:                                              ; preds = %129, %109
  ret i32 0
}

declare dso_local i32 @__isoc99_scanf(i8*, ...) #1

; Function Attrs: nounwind
declare dso_local noalias i8* @malloc(i64) #2

declare dso_local i32 @printf(i8*, ...) #1


!llvm.module.flags = !{!0}
!llvm.ident = !{!1}

!0 = !{i32 1, !"wchar_size", i32 4}
!1 = !{!"clang version 10.0.0-4ubuntu1 "}
